target datalayout = "e-m:e-p270:32:32-p271:32:32-p272:64:64-i64:64-i128:128-f80:128-n8:16:32:64-S128"
target triple = "x86_64-pc-linux-gnu"

@hf_esl_port = internal global i32 0, align 4
@hf_esl_crcerror = internal global i32 0, align 4
@hf_esl_alignerror = internal global i32 0, align 4
@hf_esl_timestamp = internal global i32 0, align 4
@ett_esl = internal global i32 0, align 4
@proto_esl = hidden global i32 0, align 4

; Function Attrs: nounwind null_pointer_is_valid sspstrong uwtable
define internal zeroext i16 @flags_to_port(i16 noundef zeroext %0) #3 {
  %2 = alloca i16, align 2
  %3 = alloca i16, align 2
  store i16 %0, ptr %3, align 2
  %4 = load i16, ptr %3, align 2
  %5 = zext i16 %4 to i32
  %6 = and i32 %5, 128
  %7 = icmp ne i32 %6, 0
  br i1 %7, label %8, label %9

8:                                                ; preds = %1
  store i16 0, ptr %2, align 2
  br label %87

9:                                                ; preds = %1
  %10 = load i16, ptr %3, align 2
  %11 = zext i16 %10 to i32
  %12 = and i32 %11, 64
  %13 = icmp ne i32 %12, 0
  br i1 %13, label %14, label %15

14:                                               ; preds = %9
  store i16 1, ptr %2, align 2
  br label %87

15:                                               ; preds = %9
  %16 = load i16, ptr %3, align 2
  %17 = zext i16 %16 to i32
  %18 = and i32 %17, 32
  %19 = icmp ne i32 %18, 0
  br i1 %19, label %20, label %21

20:                                               ; preds = %15
  store i16 2, ptr %2, align 2
  br label %87

21:                                               ; preds = %15
  %22 = load i16, ptr %3, align 2
  %23 = zext i16 %22 to i32
  %24 = and i32 %23, 16
  %25 = icmp ne i32 %24, 0
  br i1 %25, label %26, label %27

26:                                               ; preds = %21
  store i16 3, ptr %2, align 2
  br label %87

27:                                               ; preds = %21
  %28 = load i16, ptr %3, align 2
  %29 = zext i16 %28 to i32
  %30 = and i32 %29, 8
  %31 = icmp ne i32 %30, 0
  br i1 %31, label %32, label %33

32:                                               ; preds = %27
  store i16 4, ptr %2, align 2
  br label %87

33:                                               ; preds = %27
  %34 = load i16, ptr %3, align 2
  %35 = zext i16 %34 to i32
  %36 = and i32 %35, 4
  %37 = icmp ne i32 %36, 0
  br i1 %37, label %38, label %39

38:                                               ; preds = %33
  store i16 5, ptr %2, align 2
  br label %87

39:                                               ; preds = %33
  %40 = load i16, ptr %3, align 2
  %41 = zext i16 %40 to i32
  %42 = and i32 %41, 2
  %43 = icmp ne i32 %42, 0
  br i1 %43, label %44, label %45

44:                                               ; preds = %39
  store i16 6, ptr %2, align 2
  br label %87

45:                                               ; preds = %39
  %46 = load i16, ptr %3, align 2
  %47 = zext i16 %46 to i32
  %48 = and i32 %47, 1
  %49 = icmp ne i32 %48, 0
  br i1 %49, label %50, label %51

50:                                               ; preds = %45
  store i16 7, ptr %2, align 2
  br label %87

51:                                               ; preds = %45
  %52 = load i16, ptr %3, align 2
  %53 = zext i16 %52 to i32
  %54 = and i32 %53, 32768
  %55 = icmp ne i32 %54, 0
  br i1 %55, label %56, label %57

56:                                               ; preds = %51
  store i16 8, ptr %2, align 2
  br label %87

57:                                               ; preds = %51
  %58 = load i16, ptr %3, align 2
  %59 = zext i16 %58 to i32
  %60 = and i32 %59, 16384
  %61 = icmp ne i32 %60, 0
  br i1 %61, label %62, label %63

62:                                               ; preds = %57
  store i16 9, ptr %2, align 2
  br label %87

63:                                               ; preds = %57
  %64 = load i16, ptr %3, align 2
  %65 = zext i16 %64 to i32
  %66 = and i32 %65, 1024
  %67 = icmp ne i32 %66, 0
  br i1 %67, label %68, label %69

68:                                               ; preds = %63
  store i16 10, ptr %2, align 2
  br label %87

69:                                               ; preds = %63
  %70 = load i16, ptr %3, align 2
  %71 = zext i16 %70 to i32
  %72 = and i32 %71, 512
  %73 = icmp ne i32 %72, 0
  br i1 %73, label %74, label %75

74:                                               ; preds = %69
  store i16 11, ptr %2, align 2
  br label %87

75:                                               ; preds = %69
  br label %76

76:                                               ; preds = %75
  br label %77

77:                                               ; preds = %76
  br label %78

78:                                               ; preds = %77
  br label %79

79:                                               ; preds = %78
  br label %80

80:                                               ; preds = %79
  br label %81

81:                                               ; preds = %80
  br label %82

82:                                               ; preds = %81
  br label %83

83:                                               ; preds = %82
  br label %84

84:                                               ; preds = %83
  br label %85

85:                                               ; preds = %84
  br label %86

86:                                               ; preds = %85
  store i16 -1, ptr %2, align 2
  br label %87

87:                                               ; preds = %86, %74, %68, %62, %56, %50, %44, %38, %32, %26, %20, %14, %8
  %88 = load i16, ptr %2, align 2
  ret i16 %88
}

; Function Attrs: null_pointer_is_valid sspstrong uwtable
define internal i32 @dissect_esl_header(ptr noundef %0, ptr noundef %1, ptr noundef %2, ptr noundef %3) #0 {
  %5 = alloca ptr, align 8
  %6 = alloca ptr, align 8
  %7 = alloca ptr, align 8
  %8 = alloca ptr, align 8
  %9 = alloca ptr, align 8
  %10 = alloca ptr, align 8
  %11 = alloca i32, align 4
  %12 = alloca i32, align 4
  %13 = alloca i16, align 2
  store ptr %0, ptr %5, align 8
  store ptr %1, ptr %6, align 8
  store ptr %2, ptr %7, align 8
  store ptr %3, ptr %8, align 8
  call void @llvm.lifetime.start.p0(i64 8, ptr %9) #5
  store ptr null, ptr %9, align 8
  call void @llvm.lifetime.start.p0(i64 8, ptr %10) #5
  call void @llvm.lifetime.start.p0(i64 4, ptr %11) #5
  store i32 0, ptr %11, align 4
  call void @llvm.lifetime.start.p0(i64 4, ptr %12) #5
  %14 = load ptr, ptr %5, align 8
  %15 = call i32 @tvb_reported_length(ptr noundef %14)
  store i32 %15, ptr %12, align 4
  %16 = load i32, ptr %12, align 4
  %17 = icmp uge i32 %16, 16
  br i1 %17, label %18, label %60

18:                                               ; preds = %4
  %19 = load ptr, ptr %7, align 8
  %20 = icmp ne ptr %19, null
  br i1 %20, label %21, label %59

21:                                               ; preds = %18
  call void @llvm.lifetime.start.p0(i64 2, ptr %13) #5
  %22 = load ptr, ptr %7, align 8
  %23 = load i32, ptr @proto_esl, align 4
  %24 = load ptr, ptr %5, align 8
  %25 = call ptr @proto_tree_add_item(ptr noundef %22, i32 noundef %23, ptr noundef %24, i32 noundef 0, i32 noundef 16, i32 noundef 0)
  store ptr %25, ptr %9, align 8
  %26 = load ptr, ptr %9, align 8
  %27 = load i32, ptr @ett_esl, align 4
  %28 = call ptr @proto_item_add_subtree(ptr noundef %26, i32 noundef %27)
  store ptr %28, ptr %10, align 8
  %29 = load i32, ptr %11, align 4
  %30 = add i32 %29, 6
  store i32 %30, ptr %11, align 4
  %31 = load ptr, ptr %5, align 8
  %32 = load i32, ptr %11, align 4
  %33 = call zeroext i16 @tvb_get_letohs(ptr noundef %31, i32 noundef %32)
  store i16 %33, ptr %13, align 2
  %34 = load ptr, ptr %10, align 8
  %35 = load i32, ptr @hf_esl_port, align 4
  %36 = load ptr, ptr %5, align 8
  %37 = load i32, ptr %11, align 4
  %38 = load i16, ptr %13, align 2
  %39 = call zeroext i16 @flags_to_port(i16 noundef zeroext %38)
  %40 = zext i16 %39 to i32
  %41 = call ptr @proto_tree_add_uint(ptr noundef %34, i32 noundef %35, ptr noundef %36, i32 noundef %37, i32 noundef 2, i32 noundef %40)
  %42 = load ptr, ptr %10, align 8
  %43 = load i32, ptr @hf_esl_alignerror, align 4
  %44 = load ptr, ptr %5, align 8
  %45 = load i32, ptr %11, align 4
  %46 = call ptr @proto_tree_add_item(ptr noundef %42, i32 noundef %43, ptr noundef %44, i32 noundef %45, i32 noundef 2, i32 noundef -2147483648)
  %47 = load ptr, ptr %10, align 8
  %48 = load i32, ptr @hf_esl_crcerror, align 4
  %49 = load ptr, ptr %5, align 8
  %50 = load i32, ptr %11, align 4
  %51 = call ptr @proto_tree_add_item(ptr noundef %47, i32 noundef %48, ptr noundef %49, i32 noundef %50, i32 noundef 2, i32 noundef -2147483648)
  %52 = load i32, ptr %11, align 4
  %53 = add i32 %52, 2
  store i32 %53, ptr %11, align 4
  %54 = load ptr, ptr %10, align 8
  %55 = load i32, ptr @hf_esl_timestamp, align 4
  %56 = load ptr, ptr %5, align 8
  %57 = load i32, ptr %11, align 4
  %58 = call ptr @proto_tree_add_item(ptr noundef %54, i32 noundef %55, ptr noundef %56, i32 noundef %57, i32 noundef 8, i32 noundef -2147483648)
  call void @llvm.lifetime.end.p0(i64 2, ptr %13) #5
  br label %59

59:                                               ; preds = %21, %18
  br label %60

60:                                               ; preds = %59, %4
  %61 = load ptr, ptr %5, align 8
  %62 = call i32 @tvb_captured_length(ptr noundef %61)
  call void @llvm.lifetime.end.p0(i64 4, ptr %12) #5
  call void @llvm.lifetime.end.p0(i64 4, ptr %11) #5
  call void @llvm.lifetime.end.p0(i64 8, ptr %10) #5
  call void @llvm.lifetime.end.p0(i64 8, ptr %9) #5
  ret i32 %62
}