; Function Attrs: null_pointer_is_valid sspstrong uwtable
define internal i32 @dissect_esl_header(ptr noundef %0, ptr readnone captures(none) %1, ptr noundef %2, ptr readnone captures(none) %3) #0 {
  %5 = tail call i32 @tvb_reported_length(ptr noundef %0)
  %6 = icmp ugt i32 %5, 15
  %7 = icmp ne ptr %2, null
  %or.cond = and i1 %7, %6
  br i1 %or.cond, label %8, label %45

8:                                                ; preds = %4
  %9 = load i32, ptr @proto_esl, align 4
  %10 = tail call ptr @proto_tree_add_item(ptr noundef nonnull %2, i32 noundef %9, ptr noundef %0, i32 noundef 0, i32 noundef 16, i32 noundef 0)
  %11 = load i32, ptr @ett_esl, align 4
  %12 = tail call ptr @proto_item_add_subtree(ptr noundef %10, i32 noundef %11)
  %13 = tail call zeroext i16 @tvb_get_letohs(ptr noundef %0, i32 noundef 6)
  %14 = load i32, ptr @hf_esl_port, align 4
  %15 = zext i16 %13 to i32
  %16 = and i32 %15, 128
  %.not.i = icmp eq i32 %16, 0
  br i1 %.not.i, label %17, label %flags_to_port.exit

17:                                               ; preds = %8
  %18 = and i32 %15, 64
  %.not13.i = icmp eq i32 %18, 0
  br i1 %.not13.i, label %19, label %flags_to_port.exit

19:                                               ; preds = %17
  %20 = and i32 %15, 32
  %.not14.i = icmp eq i32 %20, 0
  br i1 %.not14.i, label %21, label %flags_to_port.exit

21:                                               ; preds = %19
  %22 = and i32 %15, 16
  %.not15.i = icmp eq i32 %22, 0
  br i1 %.not15.i, label %23, label %flags_to_port.exit

23:                                               ; preds = %21
  %24 = and i32 %15, 8
  %.not16.i = icmp eq i32 %24, 0
  br i1 %.not16.i, label %25, label %flags_to_port.exit

25:                                               ; preds = %23
  %26 = and i32 %15, 4
  %.not17.i = icmp eq i32 %26, 0
  br i1 %.not17.i, label %27, label %flags_to_port.exit

27:                                               ; preds = %25
  %28 = and i32 %15, 2
  %.not18.i = icmp eq i32 %28, 0
  br i1 %.not18.i, label %29, label %flags_to_port.exit

29:                                               ; preds = %27
  %30 = and i32 %15, 1
  %.not19.i = icmp eq i32 %30, 0
  br i1 %.not19.i, label %31, label %flags_to_port.exit

31:                                               ; preds = %29
  %.not20.i = icmp sgt i16 %13, -1
  br i1 %.not20.i, label %32, label %flags_to_port.exit

32:                                               ; preds = %31
  %.not21.i = icmp samesign ult i16 %13, 16384
  br i1 %.not21.i, label %33, label %flags_to_port.exit

33:                                               ; preds = %32
  %34 = and i32 %15, 1024
  %.not22.i = icmp eq i32 %34, 0
  br i1 %.not22.i, label %35, label %flags_to_port.exit

35:                                               ; preds = %33
  %36 = and i32 %15, 512
  %.not23.i = icmp eq i32 %36, 0
  %37 = select i1 %.not23.i, i32 65535, i32 11
  br label %flags_to_port.exit

flags_to_port.exit:                               ; preds = %8, %17, %19, %21, %23, %25, %27, %29, %31, %32, %33, %35
  %.0.i = phi i32 [ 0, %8 ], [ 1, %17 ], [ 2, %19 ], [ 3, %21 ], [ 4, %23 ], [ 5, %25 ], [ 6, %27 ], [ 7, %29 ], [ 8, %31 ], [ 9, %32 ], [ 10, %33 ], [ %37, %35 ]
  %38 = tail call ptr @proto_tree_add_uint(ptr noundef %12, i32 noundef %14, ptr noundef %0, i32 noundef 6, i32 noundef 2, i32 noundef %.0.i)
  %39 = load i32, ptr @hf_esl_alignerror, align 4
  %40 = tail call ptr @proto_tree_add_item(ptr noundef %12, i32 noundef %39, ptr noundef %0, i32 noundef 6, i32 noundef 2, i32 noundef -2147483648)
  %41 = load i32, ptr @hf_esl_crcerror, align 4
  %42 = tail call ptr @proto_tree_add_item(ptr noundef %12, i32 noundef %41, ptr noundef %0, i32 noundef 6, i32 noundef 2, i32 noundef -2147483648)
  %43 = load i32, ptr @hf_esl_timestamp, align 4
  %44 = tail call ptr @proto_tree_add_item(ptr noundef %12, i32 noundef %43, ptr noundef %0, i32 noundef 8, i32 noundef 8, i32 noundef -2147483648)
  br label %45

45:                                               ; preds = %flags_to_port.exit, %4
  %46 = tail call i32 @tvb_captured_length(ptr noundef %0)
  ret i32 %46
}